; Function Attrs: nounwind uwtable
define internal fastcc noalias noundef ptr @assignRandomBitsToCells(ptr noundef readonly captures(none) %0, ptr noundef readonly captures(none) %1) unnamed_addr #0 {
  %3 = tail call noalias dereferenceable_or_null(16) ptr @malloc(i64 noundef 16) #26
  %4 = getelementptr inbounds nuw i8, ptr %3, i64 4
  store i32 0, ptr %4, align 4
  store i32 16, ptr %3, align 8
  %5 = tail call noalias dereferenceable_or_null(64) ptr @malloc(i64 noundef 64) #26
  %6 = getelementptr inbounds nuw i8, ptr %3, i64 8
  store ptr %5, ptr %6, align 8
  %7 = getelementptr i8, ptr %0, i64 40
  %.val89 = load ptr, ptr %7, align 8
  %8 = getelementptr i8, ptr %.val89, i64 4
  %.val8.val10 = load i32, ptr %8, align 4
  %9 = icmp sgt i32 %.val8.val10, 0
  br i1 %9, label %.lr.ph, label %._crit_edge

.lr.ph:                                           ; preds = %2
  %10 = getelementptr inbounds nuw i8, ptr %1, i64 24
  %11 = getelementptr i8, ptr %0, i64 48
  br label %12

12:                                               ; preds = %.lr.ph, %Vec_IntPush.exit
  %.011 = phi i32 [ 0, %.lr.ph ], [ %51, %Vec_IntPush.exit ]
  %13 = tail call i32 @rand() #24
  %14 = tail call i32 @rand() #24
  %15 = tail call i32 @rand() #24
  %16 = and i32 %15, 1
  %17 = load i32, ptr %4, align 4
  %18 = load i32, ptr %3, align 8
  %19 = icmp eq i32 %17, %18
  br i1 %19, label %20, label %.Vec_IntGrow.exit10_crit_edge.i

.Vec_IntGrow.exit10_crit_edge.i:                  ; preds = %12
  %.pre.i = load ptr, ptr %6, align 8
  br label %Vec_IntPush.exit

20:                                               ; preds = %12
  %21 = icmp slt i32 %17, 16
  br i1 %21, label %22, label %29

22:                                               ; preds = %20
  %23 = load ptr, ptr %6, align 8
  %.not9.i.i = icmp eq ptr %23, null
  br i1 %.not9.i.i, label %26, label %24

24:                                               ; preds = %22
  %25 = tail call dereferenceable_or_null(64) ptr @realloc(ptr noundef nonnull %23, i64 noundef 64) #28
  br label %Vec_IntGrow.exit.i

26:                                               ; preds = %22
  %27 = tail call noalias dereferenceable_or_null(64) ptr @malloc(i64 noundef 64) #26
  br label %Vec_IntGrow.exit.i

Vec_IntGrow.exit.i:                               ; preds = %26, %24
  %28 = phi ptr [ %25, %24 ], [ %27, %26 ]
  store ptr %28, ptr %6, align 8
  store i32 16, ptr %3, align 8
  br label %Vec_IntPush.exit

29:                                               ; preds = %20
  %30 = shl nuw nsw i32 %17, 1
  %31 = load ptr, ptr %6, align 8
  %.not9.i9.i = icmp eq ptr %31, null
  %32 = zext nneg i32 %30 to i64
  %33 = shl nuw nsw i64 %32, 2
  br i1 %.not9.i9.i, label %36, label %34

34:                                               ; preds = %29
  %35 = tail call ptr @realloc(ptr noundef nonnull %31, i64 noundef %33) #28
  br label %38

36:                                               ; preds = %29
  %37 = tail call noalias ptr @malloc(i64 noundef %33) #26
  br label %38

38:                                               ; preds = %36, %34
  %39 = phi ptr [ %35, %34 ], [ %37, %36 ]
  store ptr %39, ptr %6, align 8
  store i32 %30, ptr %3, align 8
  br label %Vec_IntPush.exit

Vec_IntPush.exit:                                 ; preds = %.Vec_IntGrow.exit10_crit_edge.i, %Vec_IntGrow.exit.i, %38
  %40 = phi ptr [ %.pre.i, %.Vec_IntGrow.exit10_crit_edge.i ], [ %39, %38 ], [ %28, %Vec_IntGrow.exit.i ]
  %41 = add nsw i32 %17, 1
  store i32 %41, ptr %4, align 4
  %42 = sext i32 %17 to i64
  %43 = getelementptr inbounds i32, ptr %40, i64 %42
  store i32 %16, ptr %43, align 4
  %44 = load ptr, ptr %10, align 8
  %.val = load ptr, ptr %11, align 8
  %45 = getelementptr i8, ptr %.val, i64 4
  %.val.val = load i32, ptr %45, align 4
  %46 = add nsw i32 %.val.val, %.011
  %47 = sext i32 %46 to i64
  %48 = getelementptr inbounds i32, ptr %44, i64 %47
  %49 = load i32, ptr %48, align 4
  %50 = add nsw i32 %.011, 1
  %51 = add i32 %50, %49
  %.val8 = load ptr, ptr %7, align 8
  %52 = getelementptr i8, ptr %.val8, i64 4
  %.val8.val = load i32, ptr %52, align 4
  %53 = icmp slt i32 %51, %.val8.val
  br i1 %53, label %12, label %._crit_edge, !llvm.loop !131

._crit_edge:                                      ; preds = %Vec_IntPush.exit, %2
  ret ptr %3
}